; Function Attrs: mustprogress uwtable
define dso_local noundef zeroext i1 @_ZNK4i18n12phonenumbers17RegexBasedMatcher19MatchNationalNumberERKNSt7__cxx1112basic_stringIcSt11char_traitsIcESaIcEEERKNS0_15PhoneNumberDescEb(ptr noundef nonnull readonly align 8 captures(none) dereferenceable(24) %0, ptr noundef nonnull align 8 dereferenceable(32) %1, ptr noundef nonnull readonly align 8 captures(none) dereferenceable(72) %2, i1 noundef zeroext %3) unnamed_addr #3 align 2 personality ptr @__gxx_personality_v0 {
  %5 = getelementptr inbounds nuw i8, ptr %2, i64 56
  %6 = load ptr, ptr %5, align 8, !tbaa !15
  %7 = getelementptr inbounds nuw i8, ptr %6, i64 8
  %8 = load i64, ptr %7, align 8, !tbaa !18
  %9 = icmp eq i64 %8, 0
  br i1 %9, label %_ZNK4i18n12phonenumbers17RegexBasedMatcher5MatchERKNSt7__cxx1112basic_stringIcSt11char_traitsIcESaIcEEES9_b.exit, label %10

10:                                               ; preds = %4
  %11 = getelementptr inbounds nuw i8, ptr %0, i64 16
  %12 = load ptr, ptr %11, align 8, !tbaa !12
  %13 = tail call noundef nonnull align 8 dereferenceable(8) ptr @_ZN4i18n12phonenumbers11RegExpCache9GetRegExpERKNSt7__cxx1112basic_stringIcSt11char_traitsIcESaIcEEE(ptr noundef nonnull align 8 dereferenceable(56) %12, ptr noundef nonnull align 8 dereferenceable(32) %6)
  %14 = load ptr, ptr %13, align 8, !tbaa !4
  %15 = getelementptr inbounds nuw i8, ptr %14, i64 24
  %16 = load ptr, ptr %15, align 8
  %17 = tail call noundef zeroext i1 %16(ptr noundef nonnull align 8 dereferenceable(8) %13, ptr noundef nonnull align 8 dereferenceable(32) %1, i1 noundef zeroext true, ptr noundef null)
  br i1 %17, label %_ZNK4i18n12phonenumbers17RegexBasedMatcher5MatchERKNSt7__cxx1112basic_stringIcSt11char_traitsIcESaIcEEES9_b.exit, label %18

18:                                               ; preds = %10
  %19 = getelementptr inbounds nuw i8, ptr %0, i64 8
  %20 = load ptr, ptr %19, align 8, !tbaa !7
  %21 = load ptr, ptr %20, align 8, !tbaa !4
  %22 = getelementptr inbounds nuw i8, ptr %21, i64 16
  %23 = load ptr, ptr %22, align 8
  %24 = tail call noundef ptr %23(ptr noundef nonnull align 8 dereferenceable(8) %20, ptr noundef nonnull align 8 dereferenceable(32) %1)
  %25 = load ptr, ptr %13, align 8, !tbaa !4
  %26 = getelementptr inbounds nuw i8, ptr %25, i64 16
  %27 = load ptr, ptr %26, align 8
  %28 = invoke noundef zeroext i1 %27(ptr noundef nonnull align 8 dereferenceable(8) %13, ptr noundef %24, i1 noundef zeroext true, ptr noundef null, ptr noundef null, ptr noundef null, ptr noundef null, ptr noundef null, ptr noundef null)
          to label %_ZNK4i18n12phonenumbers6RegExp7ConsumeEPNS0_11RegExpInputE.exit.i unwind label %35

_ZNK4i18n12phonenumbers6RegExp7ConsumeEPNS0_11RegExpInputE.exit.i: ; preds = %18
  %29 = and i1 %3, %28
  %30 = icmp eq ptr %24, null
  br i1 %30, label %_ZNK4i18n12phonenumbers17RegexBasedMatcher5MatchERKNSt7__cxx1112basic_stringIcSt11char_traitsIcESaIcEEES9_b.exit, label %31

31:                                               ; preds = %_ZNK4i18n12phonenumbers6RegExp7ConsumeEPNS0_11RegExpInputE.exit.i
  %32 = load ptr, ptr %24, align 8, !tbaa !4
  %33 = getelementptr inbounds nuw i8, ptr %32, i64 8
  %34 = load ptr, ptr %33, align 8
  tail call void %34(ptr noundef nonnull align 8 dereferenceable(8) %24) #10
  br label %_ZNK4i18n12phonenumbers17RegexBasedMatcher5MatchERKNSt7__cxx1112basic_stringIcSt11char_traitsIcESaIcEEES9_b.exit

35:                                               ; preds = %18
  %36 = landingpad { ptr, i32 }
          cleanup
  %37 = icmp eq ptr %24, null
  br i1 %37, label %_ZN5boost10scoped_ptrIN4i18n12phonenumbers11RegExpInputEED2Ev.exit9.i, label %38

38:                                               ; preds = %35
  %39 = load ptr, ptr %24, align 8, !tbaa !4
  %40 = getelementptr inbounds nuw i8, ptr %39, i64 8
  %41 = load ptr, ptr %40, align 8
  tail call void %41(ptr noundef nonnull align 8 dereferenceable(8) %24) #10
  br label %_ZN5boost10scoped_ptrIN4i18n12phonenumbers11RegExpInputEED2Ev.exit9.i

_ZN5boost10scoped_ptrIN4i18n12phonenumbers11RegExpInputEED2Ev.exit9.i: ; preds = %38, %35
  resume { ptr, i32 } %36

_ZNK4i18n12phonenumbers17RegexBasedMatcher5MatchERKNSt7__cxx1112basic_stringIcSt11char_traitsIcESaIcEEES9_b.exit: ; preds = %31, %_ZNK4i18n12phonenumbers6RegExp7ConsumeEPNS0_11RegExpInputE.exit.i, %10, %4
  %.0 = phi i1 [ false, %4 ], [ true, %10 ], [ %29, %_ZNK4i18n12phonenumbers6RegExp7ConsumeEPNS0_11RegExpInputE.exit.i ], [ %29, %31 ]
  ret i1 %.0
}